target datalayout = "e-m:e-p270:32:32-p271:32:32-p272:64:64-i64:64-i128:128-f80:128-n8:16:32:64-S128"
target triple = "x86_64-pc-linux-gnu"

%struct.TupleTableSlotOps = type { i64, ptr, ptr, ptr, ptr, ptr, ptr, ptr, ptr, ptr, ptr, ptr, ptr }
%struct.ResultRelInfo = type { i32, i32, ptr, i32, ptr, ptr, i16, ptr, i8, ptr, ptr, ptr, i8, i8, ptr, ptr, ptr, ptr, ptr, ptr, ptr, ptr, ptr, ptr, i8, i32, i32, i32, ptr, ptr, ptr, ptr, ptr, ptr, ptr, i32, i32, ptr, ptr, ptr, ptr, [3 x ptr], ptr, ptr, ptr, i8, ptr, i8, ptr, ptr, ptr, ptr }
%struct.RelationData = type { %struct.RelFileLocator, ptr, i32, i32, i8, i8, i8, i8, i8, i32, i32, i32, i32, ptr, ptr, i32, %struct.LockInfoData, ptr, ptr, ptr, ptr, ptr, i8, ptr, ptr, ptr, ptr, ptr, ptr, i32, ptr, i8, ptr, ptr, i32, i8, i32, ptr, i8, ptr, ptr, ptr, ptr, ptr, ptr, ptr, i32, ptr, ptr, ptr, ptr, ptr, ptr, ptr, ptr, ptr, ptr, ptr, ptr, ptr, ptr, ptr, ptr, ptr, ptr, ptr, i32, i8, ptr }
%struct.RelFileLocator = type { i32, i32, i32 }
%struct.LockInfoData = type { %struct.LockRelId }
%struct.LockRelId = type { i32, i32 }
%struct.TupleDescData = type { i32, i32, i32, i32, ptr, [0 x %struct.CompactAttribute] }
%struct.CompactAttribute = type { i32, i16, i8, i8, i8, i8, i8, i8, i8 }
%struct.EState = type { i32, i32, ptr, ptr, ptr, i32, ptr, ptr, ptr, ptr, ptr, ptr, ptr, ptr, ptr, ptr, i32, ptr, ptr, ptr, ptr, ptr, ptr, ptr, ptr, ptr, ptr, i64, i64, i32, i32, i8, ptr, ptr, ptr, ptr, ptr, i8, i32, i32, ptr, i32, ptr, ptr, ptr, ptr }
%struct.ExprContext = type { i32, ptr, ptr, ptr, ptr, ptr, ptr, ptr, ptr, ptr, i64, i8, i64, i8, ptr, ptr, ptr, ptr }
%struct.TupleTableSlot = type { i32, i16, i16, ptr, ptr, ptr, ptr, ptr, %struct.ItemPointerData, i32 }
%struct.ItemPointerData = type { %struct.BlockIdData, i16 }
%struct.BlockIdData = type { i16, i16 }
%struct.ExprState = type { i32, i8, i8, i64, ptr, ptr, ptr, ptr, ptr, i32, i32, ptr, ptr, ptr, ptr, ptr, ptr, ptr }

@CurrentMemoryContext = external global ptr, align 8

; Function Attrs: inlinehint nounwind uwtable
define internal void @slot_getsomeattrs(ptr noundef %0, i32 noundef %1) #3 {
  %3 = alloca ptr, align 8
  %4 = alloca i32, align 4
  store ptr %0, ptr %3, align 8
  store i32 %1, ptr %4, align 4
  %5 = load ptr, ptr %3, align 8
  %6 = getelementptr inbounds nuw %struct.TupleTableSlot, ptr %5, i32 0, i32 2
  %7 = load i16, ptr %6, align 2
  %8 = sext i16 %7 to i32
  %9 = load i32, ptr %4, align 4
  %10 = icmp slt i32 %8, %9
  br i1 %10, label %11, label %14

11:                                               ; preds = %2
  %12 = load ptr, ptr %3, align 8
  %13 = load i32, ptr %4, align 4
  call void @slot_getsomeattrs_int(ptr noundef %12, i32 noundef %13)
  br label %14

14:                                               ; preds = %11, %2
  ret void
}

; Function Attrs: inlinehint nounwind uwtable
define internal void @ExecMaterializeSlot(ptr noundef %0) #3 {
  %2 = alloca ptr, align 8
  store ptr %0, ptr %2, align 8
  %3 = load ptr, ptr %2, align 8
  %4 = getelementptr inbounds nuw %struct.TupleTableSlot, ptr %3, i32 0, i32 3
  %5 = load ptr, ptr %4, align 8
  %6 = getelementptr inbounds nuw %struct.TupleTableSlotOps, ptr %5, i32 0, i32 7
  %7 = load ptr, ptr %6, align 8
  %8 = load ptr, ptr %2, align 8
  call void %7(ptr noundef %8)
  ret void
}

; Function Attrs: inlinehint nounwind uwtable
define internal ptr @ExecClearTuple(ptr noundef %0) #3 {
  %2 = alloca ptr, align 8
  store ptr %0, ptr %2, align 8
  %3 = load ptr, ptr %2, align 8
  %4 = getelementptr inbounds nuw %struct.TupleTableSlot, ptr %3, i32 0, i32 3
  %5 = load ptr, ptr %4, align 8
  %6 = getelementptr inbounds nuw %struct.TupleTableSlotOps, ptr %5, i32 0, i32 3
  %7 = load ptr, ptr %6, align 8
  %8 = load ptr, ptr %2, align 8
  call void %7(ptr noundef %8)
  %9 = load ptr, ptr %2, align 8
  ret ptr %9
}

; Function Attrs: inlinehint nounwind uwtable
define internal i64 @ExecEvalExpr(ptr noundef %0, ptr noundef %1, ptr noundef %2) #3 {
  %4 = alloca ptr, align 8
  %5 = alloca ptr, align 8
  %6 = alloca ptr, align 8
  store ptr %0, ptr %4, align 8
  store ptr %1, ptr %5, align 8
  store ptr %2, ptr %6, align 8
  %7 = load ptr, ptr %4, align 8
  %8 = getelementptr inbounds nuw %struct.ExprState, ptr %7, i32 0, i32 6
  %9 = load ptr, ptr %8, align 8
  %10 = load ptr, ptr %4, align 8
  %11 = load ptr, ptr %5, align 8
  %12 = load ptr, ptr %6, align 8
  %13 = call i64 %9(ptr noundef %10, ptr noundef %11, ptr noundef %12)
  ret i64 %13
}

; Function Attrs: inlinehint nounwind uwtable
define internal ptr @TupleDescCompactAttr(ptr noundef %0, i32 noundef %1) #3 {
  %3 = alloca ptr, align 8
  %4 = alloca i32, align 4
  %5 = alloca ptr, align 8
  store ptr %0, ptr %3, align 8
  store i32 %1, ptr %4, align 4
  call void @llvm.lifetime.start.p0(i64 8, ptr %5) #8
  %6 = load ptr, ptr %3, align 8
  %7 = getelementptr inbounds nuw %struct.TupleDescData, ptr %6, i32 0, i32 5
  %8 = load i32, ptr %4, align 4
  %9 = sext i32 %8 to i64
  %10 = getelementptr inbounds [0 x %struct.CompactAttribute], ptr %7, i64 0, i64 %9
  store ptr %10, ptr %5, align 8
  %11 = load ptr, ptr %5, align 8
  call void @llvm.lifetime.end.p0(i64 8, ptr %5) #8
  ret ptr %11
}

; Function Attrs: inlinehint nounwind uwtable
define internal void @slot_getallattrs(ptr noundef %0) #3 {
  %2 = alloca ptr, align 8
  store ptr %0, ptr %2, align 8
  %3 = load ptr, ptr %2, align 8
  %4 = load ptr, ptr %2, align 8
  %5 = getelementptr inbounds nuw %struct.TupleTableSlot, ptr %4, i32 0, i32 4
  %6 = load ptr, ptr %5, align 8
  %7 = getelementptr inbounds nuw %struct.TupleDescData, ptr %6, i32 0, i32 0
  %8 = load i32, ptr %7, align 8
  call void @slot_getsomeattrs(ptr noundef %3, i32 noundef %8)
  ret void
}

; Function Attrs: inlinehint nounwind uwtable
define internal ptr @MemoryContextSwitchTo(ptr noundef %0) #3 {
  %2 = alloca ptr, align 8
  %3 = alloca ptr, align 8
  store ptr %0, ptr %2, align 8
  call void @llvm.lifetime.start.p0(i64 8, ptr %3) #8
  %4 = load ptr, ptr @CurrentMemoryContext, align 8
  store ptr %4, ptr %3, align 8
  %5 = load ptr, ptr %2, align 8
  store ptr %5, ptr @CurrentMemoryContext, align 8
  %6 = load ptr, ptr %3, align 8
  call void @llvm.lifetime.end.p0(i64 8, ptr %3) #8
  ret ptr %6
}

; Function Attrs: nounwind uwtable
define dso_local void @ExecComputeStoredGenerated(ptr noundef %0, ptr noundef %1, ptr noundef %2, i32 noundef %3) #0 {
  %5 = alloca ptr, align 8
  %6 = alloca ptr, align 8
  %7 = alloca ptr, align 8
  %8 = alloca i32, align 4
  %9 = alloca ptr, align 8
  %10 = alloca ptr, align 8
  %11 = alloca i32, align 4
  %12 = alloca ptr, align 8
  %13 = alloca ptr, align 8
  %14 = alloca ptr, align 8
  %15 = alloca ptr, align 8
  %16 = alloca ptr, align 8
  %17 = alloca i32, align 4
  %18 = alloca i32, align 4
  %19 = alloca ptr, align 8
  %20 = alloca i64, align 8
  %21 = alloca i8, align 1
  store ptr %0, ptr %5, align 8
  store ptr %1, ptr %6, align 8
  store ptr %2, ptr %7, align 8
  store i32 %3, ptr %8, align 4
  call void @llvm.lifetime.start.p0(i64 8, ptr %9) #8
  %22 = load ptr, ptr %5, align 8
  %23 = getelementptr inbounds nuw %struct.ResultRelInfo, ptr %22, i32 0, i32 2
  %24 = load ptr, ptr %23, align 8
  store ptr %24, ptr %9, align 8
  call void @llvm.lifetime.start.p0(i64 8, ptr %10) #8
  %25 = load ptr, ptr %9, align 8
  %26 = getelementptr inbounds nuw %struct.RelationData, ptr %25, i32 0, i32 14
  %27 = load ptr, ptr %26, align 8
  store ptr %27, ptr %10, align 8
  call void @llvm.lifetime.start.p0(i64 4, ptr %11) #8
  %28 = load ptr, ptr %10, align 8
  %29 = getelementptr inbounds nuw %struct.TupleDescData, ptr %28, i32 0, i32 0
  %30 = load i32, ptr %29, align 8
  store i32 %30, ptr %11, align 4
  call void @llvm.lifetime.start.p0(i64 8, ptr %12) #8
  %31 = load ptr, ptr %6, align 8
  %32 = getelementptr inbounds nuw %struct.EState, ptr %31, i32 0, i32 35
  %33 = load ptr, ptr %32, align 8
  %34 = icmp ne ptr %33, null
  br i1 %34, label %35, label %39

35:                                               ; preds = %4
  %36 = load ptr, ptr %6, align 8
  %37 = getelementptr inbounds nuw %struct.EState, ptr %36, i32 0, i32 35
  %38 = load ptr, ptr %37, align 8
  br label %42

39:                                               ; preds = %4
  %40 = load ptr, ptr %6, align 8
  %41 = call ptr @MakePerTupleExprContext(ptr noundef %40)
  br label %42

42:                                               ; preds = %39, %35
  %43 = phi ptr [ %38, %35 ], [ %41, %39 ]
  store ptr %43, ptr %12, align 8
  call void @llvm.lifetime.start.p0(i64 8, ptr %13) #8
  call void @llvm.lifetime.start.p0(i64 8, ptr %14) #8
  call void @llvm.lifetime.start.p0(i64 8, ptr %15) #8
  call void @llvm.lifetime.start.p0(i64 8, ptr %16) #8
  %44 = load i32, ptr %8, align 4
  %45 = icmp eq i32 %44, 2
  br i1 %45, label %46, label %65

46:                                               ; preds = %42
  %47 = load ptr, ptr %5, align 8
  %48 = getelementptr inbounds nuw %struct.ResultRelInfo, ptr %47, i32 0, i32 34
  %49 = load ptr, ptr %48, align 8
  %50 = icmp eq ptr %49, null
  br i1 %50, label %51, label %55

51:                                               ; preds = %46
  %52 = load ptr, ptr %5, align 8
  %53 = load ptr, ptr %6, align 8
  %54 = load i32, ptr %8, align 4
  call void @ExecInitGenerated(ptr noundef %52, ptr noundef %53, i32 noundef %54)
  br label %55

55:                                               ; preds = %51, %46
  %56 = load ptr, ptr %5, align 8
  %57 = getelementptr inbounds nuw %struct.ResultRelInfo, ptr %56, i32 0, i32 36
  %58 = load i32, ptr %57, align 4
  %59 = icmp eq i32 %58, 0
  br i1 %59, label %60, label %61

60:                                               ; preds = %55
  store i32 1, ptr %17, align 4
  br label %218

61:                                               ; preds = %55
  %62 = load ptr, ptr %5, align 8
  %63 = getelementptr inbounds nuw %struct.ResultRelInfo, ptr %62, i32 0, i32 34
  %64 = load ptr, ptr %63, align 8
  store ptr %64, ptr %13, align 8
  br label %78

65:                                               ; preds = %42
  %66 = load ptr, ptr %5, align 8
  %67 = getelementptr inbounds nuw %struct.ResultRelInfo, ptr %66, i32 0, i32 33
  %68 = load ptr, ptr %67, align 8
  %69 = icmp eq ptr %68, null
  br i1 %69, label %70, label %74

70:                                               ; preds = %65
  %71 = load ptr, ptr %5, align 8
  %72 = load ptr, ptr %6, align 8
  %73 = load i32, ptr %8, align 4
  call void @ExecInitGenerated(ptr noundef %71, ptr noundef %72, i32 noundef %73)
  br label %74

74:                                               ; preds = %70, %65
  %75 = load ptr, ptr %5, align 8
  %76 = getelementptr inbounds nuw %struct.ResultRelInfo, ptr %75, i32 0, i32 33
  %77 = load ptr, ptr %76, align 8
  store ptr %77, ptr %13, align 8
  br label %78

78:                                               ; preds = %74, %61
  %79 = load ptr, ptr %6, align 8
  %80 = getelementptr inbounds nuw %struct.EState, ptr %79, i32 0, i32 35
  %81 = load ptr, ptr %80, align 8
  %82 = icmp ne ptr %81, null
  br i1 %82, label %83, label %87

83:                                               ; preds = %78
  %84 = load ptr, ptr %6, align 8
  %85 = getelementptr inbounds nuw %struct.EState, ptr %84, i32 0, i32 35
  %86 = load ptr, ptr %85, align 8
  br label %90

87:                                               ; preds = %78
  %88 = load ptr, ptr %6, align 8
  %89 = call ptr @MakePerTupleExprContext(ptr noundef %88)
  br label %90

90:                                               ; preds = %87, %83
  %91 = phi ptr [ %86, %83 ], [ %89, %87 ]
  %92 = getelementptr inbounds nuw %struct.ExprContext, ptr %91, i32 0, i32 5
  %93 = load ptr, ptr %92, align 8
  %94 = call ptr @MemoryContextSwitchTo(ptr noundef %93)
  store ptr %94, ptr %14, align 8
  %95 = load i32, ptr %11, align 4
  %96 = sext i32 %95 to i64
  %97 = mul i64 8, %96
  %98 = call ptr @palloc(i64 noundef %97)
  store ptr %98, ptr %15, align 8
  %99 = load i32, ptr %11, align 4
  %100 = sext i32 %99 to i64
  %101 = mul i64 1, %100
  %102 = call ptr @palloc(i64 noundef %101)
  store ptr %102, ptr %16, align 8
  %103 = load ptr, ptr %7, align 8
  call void @slot_getallattrs(ptr noundef %103)
  %104 = load ptr, ptr %16, align 8
  %105 = load ptr, ptr %7, align 8
  %106 = getelementptr inbounds nuw %struct.TupleTableSlot, ptr %105, i32 0, i32 6
  %107 = load ptr, ptr %106, align 8
  %108 = load i32, ptr %11, align 4
  %109 = sext i32 %108 to i64
  %110 = mul i64 1, %109
  call void @llvm.memcpy.p0.p0.i64(ptr align 1 %104, ptr align 1 %107, i64 %110, i1 false)
  call void @llvm.lifetime.start.p0(i64 4, ptr %18) #8
  store i32 0, ptr %18, align 4
  br label %111

111:                                              ; preds = %193, %90
  %112 = load i32, ptr %18, align 4
  %113 = load i32, ptr %11, align 4
  %114 = icmp slt i32 %112, %113
  br i1 %114, label %116, label %115

115:                                              ; preds = %111
  store i32 2, ptr %17, align 4
  call void @llvm.lifetime.end.p0(i64 4, ptr %18) #8
  br label %196

116:                                              ; preds = %111
  call void @llvm.lifetime.start.p0(i64 8, ptr %19) #8
  %117 = load ptr, ptr %10, align 8
  %118 = load i32, ptr %18, align 4
  %119 = call ptr @TupleDescCompactAttr(ptr noundef %117, i32 noundef %118)
  store ptr %119, ptr %19, align 8
  %120 = load ptr, ptr %13, align 8
  %121 = load i32, ptr %18, align 4
  %122 = sext i32 %121 to i64
  %123 = getelementptr inbounds ptr, ptr %120, i64 %122
  %124 = load ptr, ptr %123, align 8
  %125 = icmp ne ptr %124, null
  br i1 %125, label %126, label %163

126:                                              ; preds = %116
  call void @llvm.lifetime.start.p0(i64 8, ptr %20) #8
  call void @llvm.lifetime.start.p0(i64 1, ptr %21) #8
  %127 = load ptr, ptr %7, align 8
  %128 = load ptr, ptr %12, align 8
  %129 = getelementptr inbounds nuw %struct.ExprContext, ptr %128, i32 0, i32 1
  store ptr %127, ptr %129, align 8
  %130 = load ptr, ptr %13, align 8
  %131 = load i32, ptr %18, align 4
  %132 = sext i32 %131 to i64
  %133 = getelementptr inbounds ptr, ptr %130, i64 %132
  %134 = load ptr, ptr %133, align 8
  %135 = load ptr, ptr %12, align 8
  %136 = call i64 @ExecEvalExpr(ptr noundef %134, ptr noundef %135, ptr noundef %21)
  store i64 %136, ptr %20, align 8
  %137 = load i8, ptr %21, align 1, !range !4, !noundef !5
  %138 = trunc i8 %137 to i1
  br i1 %138, label %150, label %139

139:                                              ; preds = %126
  %140 = load i64, ptr %20, align 8
  %141 = load ptr, ptr %19, align 8
  %142 = getelementptr inbounds nuw %struct.CompactAttribute, ptr %141, i32 0, i32 2
  %143 = load i8, ptr %142, align 2, !range !4, !noundef !5
  %144 = trunc i8 %143 to i1
  %145 = load ptr, ptr %19, align 8
  %146 = getelementptr inbounds nuw %struct.CompactAttribute, ptr %145, i32 0, i32 1
  %147 = load i16, ptr %146, align 4
  %148 = sext i16 %147 to i32
  %149 = call i64 @datumCopy(i64 noundef %140, i1 noundef zeroext %144, i32 noundef %148)
  store i64 %149, ptr %20, align 8
  br label %150

150:                                              ; preds = %139, %126
  %151 = load i64, ptr %20, align 8
  %152 = load ptr, ptr %15, align 8
  %153 = load i32, ptr %18, align 4
  %154 = sext i32 %153 to i64
  %155 = getelementptr inbounds i64, ptr %152, i64 %154
  store i64 %151, ptr %155, align 8
  %156 = load i8, ptr %21, align 1, !range !4, !noundef !5
  %157 = trunc i8 %156 to i1
  %158 = load ptr, ptr %16, align 8
  %159 = load i32, ptr %18, align 4
  %160 = sext i32 %159 to i64
  %161 = getelementptr inbounds i8, ptr %158, i64 %160
  %162 = zext i1 %157 to i8
  store i8 %162, ptr %161, align 1
  call void @llvm.lifetime.end.p0(i64 1, ptr %21) #8
  call void @llvm.lifetime.end.p0(i64 8, ptr %20) #8
  br label %192

163:                                              ; preds = %116
  %164 = load ptr, ptr %16, align 8
  %165 = load i32, ptr %18, align 4
  %166 = sext i32 %165 to i64
  %167 = getelementptr inbounds i8, ptr %164, i64 %166
  %168 = load i8, ptr %167, align 1, !range !4, !noundef !5
  %169 = trunc i8 %168 to i1
  br i1 %169, label %191, label %170

170:                                              ; preds = %163
  %171 = load ptr, ptr %7, align 8
  %172 = getelementptr inbounds nuw %struct.TupleTableSlot, ptr %171, i32 0, i32 5
  %173 = load ptr, ptr %172, align 8
  %174 = load i32, ptr %18, align 4
  %175 = sext i32 %174 to i64
  %176 = getelementptr inbounds i64, ptr %173, i64 %175
  %177 = load i64, ptr %176, align 8
  %178 = load ptr, ptr %19, align 8
  %179 = getelementptr inbounds nuw %struct.CompactAttribute, ptr %178, i32 0, i32 2
  %180 = load i8, ptr %179, align 2, !range !4, !noundef !5
  %181 = trunc i8 %180 to i1
  %182 = load ptr, ptr %19, align 8
  %183 = getelementptr inbounds nuw %struct.CompactAttribute, ptr %182, i32 0, i32 1
  %184 = load i16, ptr %183, align 4
  %185 = sext i16 %184 to i32
  %186 = call i64 @datumCopy(i64 noundef %177, i1 noundef zeroext %181, i32 noundef %185)
  %187 = load ptr, ptr %15, align 8
  %188 = load i32, ptr %18, align 4
  %189 = sext i32 %188 to i64
  %190 = getelementptr inbounds i64, ptr %187, i64 %189
  store i64 %186, ptr %190, align 8
  br label %191

191:                                              ; preds = %170, %163
  br label %192

192:                                              ; preds = %191, %150
  call void @llvm.lifetime.end.p0(i64 8, ptr %19) #8
  br label %193

193:                                              ; preds = %192
  %194 = load i32, ptr %18, align 4
  %195 = add i32 %194, 1
  store i32 %195, ptr %18, align 4
  br label %111, !llvm.loop !8

196:                                              ; preds = %115
  %197 = load ptr, ptr %7, align 8
  %198 = call ptr @ExecClearTuple(ptr noundef %197)
  %199 = load ptr, ptr %7, align 8
  %200 = getelementptr inbounds nuw %struct.TupleTableSlot, ptr %199, i32 0, i32 5
  %201 = load ptr, ptr %200, align 8
  %202 = load ptr, ptr %15, align 8
  %203 = load i32, ptr %11, align 4
  %204 = sext i32 %203 to i64
  %205 = mul i64 8, %204
  call void @llvm.memcpy.p0.p0.i64(ptr align 8 %201, ptr align 8 %202, i64 %205, i1 false)
  %206 = load ptr, ptr %7, align 8
  %207 = getelementptr inbounds nuw %struct.TupleTableSlot, ptr %206, i32 0, i32 6
  %208 = load ptr, ptr %207, align 8
  %209 = load ptr, ptr %16, align 8
  %210 = load i32, ptr %11, align 4
  %211 = sext i32 %210 to i64
  %212 = mul i64 1, %211
  call void @llvm.memcpy.p0.p0.i64(ptr align 1 %208, ptr align 1 %209, i64 %212, i1 false)
  %213 = load ptr, ptr %7, align 8
  %214 = call ptr @ExecStoreVirtualTuple(ptr noundef %213)
  %215 = load ptr, ptr %7, align 8
  call void @ExecMaterializeSlot(ptr noundef %215)
  %216 = load ptr, ptr %14, align 8
  %217 = call ptr @MemoryContextSwitchTo(ptr noundef %216)
  store i32 0, ptr %17, align 4
  br label %218

218:                                              ; preds = %196, %60
  call void @llvm.lifetime.end.p0(i64 8, ptr %16) #8
  call void @llvm.lifetime.end.p0(i64 8, ptr %15) #8
  call void @llvm.lifetime.end.p0(i64 8, ptr %14) #8
  call void @llvm.lifetime.end.p0(i64 8, ptr %13) #8
  call void @llvm.lifetime.end.p0(i64 8, ptr %12) #8
  call void @llvm.lifetime.end.p0(i64 4, ptr %11) #8
  call void @llvm.lifetime.end.p0(i64 8, ptr %10) #8
  call void @llvm.lifetime.end.p0(i64 8, ptr %9) #8
  %219 = load i32, ptr %17, align 4
  switch i32 %219, label %221 [
    i32 0, label %220
    i32 1, label %220
  ]

220:                                              ; preds = %218, %218
  ret void

221:                                              ; preds = %218
  unreachable
}