; Function Attrs: nounwind uwtable
define dso_local void @ExecComputeStoredGenerated(ptr noundef %0, ptr noundef %1, ptr noundef %2, i32 noundef %3) local_unnamed_addr #0 {
  %5 = alloca i8, align 1
  %6 = getelementptr inbounds nuw i8, ptr %0, i64 8
  %7 = load ptr, ptr %6, align 8
  %8 = getelementptr inbounds nuw i8, ptr %7, i64 64
  %9 = load ptr, ptr %8, align 8
  %10 = load i32, ptr %9, align 8
  %11 = getelementptr inbounds nuw i8, ptr %1, i64 264
  %12 = load ptr, ptr %11, align 8
  %.not = icmp eq ptr %12, null
  br i1 %.not, label %13, label %15

13:                                               ; preds = %4
  %14 = tail call ptr @MakePerTupleExprContext(ptr noundef nonnull %1) #9
  br label %15

15:                                               ; preds = %4, %13
  %16 = phi ptr [ %14, %13 ], [ %12, %4 ]
  %17 = icmp eq i32 %3, 2
  br i1 %17, label %18, label %27

18:                                               ; preds = %15
  %19 = getelementptr inbounds nuw i8, ptr %0, i64 240
  %20 = load ptr, ptr %19, align 8
  %21 = icmp eq ptr %20, null
  br i1 %21, label %22, label %23

22:                                               ; preds = %18
  tail call void @ExecInitGenerated(ptr noundef nonnull %0, ptr noundef nonnull %1, i32 noundef 2)
  br label %23

23:                                               ; preds = %22, %18
  %24 = getelementptr inbounds nuw i8, ptr %0, i64 252
  %25 = load i32, ptr %24, align 4
  %26 = icmp eq i32 %25, 0
  br i1 %26, label %110, label %32

27:                                               ; preds = %15
  %28 = getelementptr inbounds nuw i8, ptr %0, i64 232
  %29 = load ptr, ptr %28, align 8
  %30 = icmp eq ptr %29, null
  br i1 %30, label %31, label %32

31:                                               ; preds = %27
  tail call void @ExecInitGenerated(ptr noundef nonnull %0, ptr noundef nonnull %1, i32 noundef %3)
  br label %32

32:                                               ; preds = %27, %31, %23
  %.064.in = phi ptr [ %19, %23 ], [ %28, %31 ], [ %28, %27 ]
  %.064 = load ptr, ptr %.064.in, align 8
  %33 = load ptr, ptr %11, align 8
  %.not69 = icmp eq ptr %33, null
  br i1 %.not69, label %34, label %36

34:                                               ; preds = %32
  %35 = tail call ptr @MakePerTupleExprContext(ptr noundef nonnull %1) #9
  br label %36

36:                                               ; preds = %32, %34
  %37 = phi ptr [ %35, %34 ], [ %33, %32 ]
  %38 = getelementptr inbounds nuw i8, ptr %37, i64 40
  %39 = load ptr, ptr %38, align 8
  %40 = load ptr, ptr @CurrentMemoryContext, align 8
  store ptr %39, ptr @CurrentMemoryContext, align 8
  %41 = sext i32 %10 to i64
  %42 = shl nsw i64 %41, 3
  %43 = tail call ptr @palloc(i64 noundef %42) #9
  %44 = tail call ptr @palloc(i64 noundef %41) #9
  %45 = getelementptr inbounds nuw i8, ptr %2, i64 16
  %46 = load ptr, ptr %45, align 8
  %47 = load i32, ptr %46, align 8
  %48 = getelementptr inbounds nuw i8, ptr %2, i64 6
  %49 = load i16, ptr %48, align 2
  %50 = sext i16 %49 to i32
  %51 = icmp sgt i32 %47, %50
  br i1 %51, label %52, label %slot_getallattrs.exit

52:                                               ; preds = %36
  tail call void @slot_getsomeattrs_int(ptr noundef nonnull %2, i32 noundef %47) #9
  br label %slot_getallattrs.exit

slot_getallattrs.exit:                            ; preds = %36, %52
  %53 = getelementptr inbounds nuw i8, ptr %2, i64 32
  %54 = load ptr, ptr %53, align 8
  tail call void @llvm.memcpy.p0.p0.i64(ptr align 1 %44, ptr align 1 %54, i64 %41, i1 false)
  %55 = icmp sgt i32 %10, 0
  br i1 %55, label %.lr.ph, label %._crit_edge

.lr.ph:                                           ; preds = %slot_getallattrs.exit
  %56 = getelementptr inbounds nuw i8, ptr %9, i64 24
  %57 = getelementptr inbounds nuw i8, ptr %16, i64 8
  %58 = getelementptr inbounds nuw i8, ptr %2, i64 24
  %wide.trip.count = zext nneg i32 %10 to i64
  br label %70

._crit_edge:                                      ; preds = %109, %slot_getallattrs.exit
  %59 = getelementptr inbounds nuw i8, ptr %2, i64 8
  %60 = load ptr, ptr %59, align 8
  %61 = getelementptr inbounds nuw i8, ptr %60, i64 24
  %62 = load ptr, ptr %61, align 8
  call void %62(ptr noundef %2) #9
  %63 = getelementptr inbounds nuw i8, ptr %2, i64 24
  %64 = load ptr, ptr %63, align 8
  call void @llvm.memcpy.p0.p0.i64(ptr align 8 %64, ptr align 8 %43, i64 %42, i1 false)
  %65 = load ptr, ptr %53, align 8
  call void @llvm.memcpy.p0.p0.i64(ptr align 1 %65, ptr align 1 %44, i64 %41, i1 false)
  %66 = call ptr @ExecStoreVirtualTuple(ptr noundef %2) #9
  %67 = load ptr, ptr %59, align 8
  %68 = getelementptr inbounds nuw i8, ptr %67, i64 56
  %69 = load ptr, ptr %68, align 8
  call void %69(ptr noundef %2) #9
  store ptr %40, ptr @CurrentMemoryContext, align 8
  br label %110

70:                                               ; preds = %.lr.ph, %109
  %indvars.iv = phi i64 [ 0, %.lr.ph ], [ %indvars.iv.next, %109 ]
  %71 = getelementptr inbounds nuw [0 x %struct.CompactAttribute], ptr %56, i64 0, i64 %indvars.iv
  %72 = getelementptr inbounds nuw ptr, ptr %.064, i64 %indvars.iv
  %73 = load ptr, ptr %72, align 8
  %.not70 = icmp eq ptr %73, null
  br i1 %.not70, label %93, label %74

74:                                               ; preds = %70
  call void @llvm.lifetime.start.p0(i64 1, ptr nonnull %5) #9
  store ptr %2, ptr %57, align 8
  %75 = load ptr, ptr %72, align 8
  %76 = getelementptr inbounds nuw i8, ptr %75, i64 32
  %77 = load ptr, ptr %76, align 8
  %78 = call i64 %77(ptr noundef %75, ptr noundef %16, ptr noundef nonnull %5) #9
  %79 = load i8, ptr %5, align 1, !range !4, !noundef !5
  %80 = trunc nuw i8 %79 to i1
  br i1 %80, label %89, label %81

81:                                               ; preds = %74
  %82 = getelementptr inbounds nuw i8, ptr %71, i64 6
  %83 = load i8, ptr %82, align 2, !range !4, !noundef !5
  %84 = trunc nuw i8 %83 to i1
  %85 = getelementptr inbounds nuw i8, ptr %71, i64 4
  %86 = load i16, ptr %85, align 4
  %87 = sext i16 %86 to i32
  %88 = call i64 @datumCopy(i64 noundef %78, i1 noundef zeroext %84, i32 noundef %87) #9
  %.pre = load i8, ptr %5, align 1, !range !4
  br label %89

89:                                               ; preds = %81, %74
  %90 = phi i8 [ 1, %74 ], [ %.pre, %81 ]
  %.0 = phi i64 [ %78, %74 ], [ %88, %81 ]
  %91 = getelementptr inbounds nuw i64, ptr %43, i64 %indvars.iv
  store i64 %.0, ptr %91, align 8
  %92 = getelementptr inbounds nuw i8, ptr %44, i64 %indvars.iv
  store i8 %90, ptr %92, align 1
  call void @llvm.lifetime.end.p0(i64 1, ptr nonnull %5) #9
  br label %109

93:                                               ; preds = %70
  %94 = getelementptr inbounds nuw i8, ptr %44, i64 %indvars.iv
  %95 = load i8, ptr %94, align 1, !range !4, !noundef !5
  %96 = trunc nuw i8 %95 to i1
  br i1 %96, label %109, label %97

97:                                               ; preds = %93
  %98 = load ptr, ptr %58, align 8
  %99 = getelementptr inbounds nuw i64, ptr %98, i64 %indvars.iv
  %100 = load i64, ptr %99, align 8
  %101 = getelementptr inbounds nuw i8, ptr %71, i64 6
  %102 = load i8, ptr %101, align 2, !range !4, !noundef !5
  %103 = trunc nuw i8 %102 to i1
  %104 = getelementptr inbounds nuw i8, ptr %71, i64 4
  %105 = load i16, ptr %104, align 4
  %106 = sext i16 %105 to i32
  %107 = call i64 @datumCopy(i64 noundef %100, i1 noundef zeroext %103, i32 noundef %106) #9
  %108 = getelementptr inbounds nuw i64, ptr %43, i64 %indvars.iv
  store i64 %107, ptr %108, align 8
  br label %109

109:                                              ; preds = %93, %97, %89
  %indvars.iv.next = add nuw nsw i64 %indvars.iv, 1
  %exitcond.not = icmp eq i64 %indvars.iv.next, %wide.trip.count
  br i1 %exitcond.not, label %._crit_edge, label %70, !llvm.loop !8

110:                                              ; preds = %23, %._crit_edge
  ret void
}